target datalayout = "e-m:e-p270:32:32-p271:32:32-p272:64:64-i64:64-i128:128-f80:128-n8:16:32:64-S128"
target triple = "x86_64-pc-linux-gnu"

%struct.Vec_Wrd_t_ = type { i32, i32, ptr }

; Function Attrs: inlinehint nounwind uwtable
define internal void @Vec_WrdGrow(ptr noundef %0, i32 noundef %1) #2 {
  %3 = alloca ptr, align 8
  %4 = alloca i32, align 4
  store ptr %0, ptr %3, align 8, !tbaa !7
  store i32 %1, ptr %4, align 4, !tbaa !3
  %5 = load ptr, ptr %3, align 8, !tbaa !7
  %6 = getelementptr inbounds nuw %struct.Vec_Wrd_t_, ptr %5, i32 0, i32 0
  %7 = load i32, ptr %6, align 8, !tbaa !15
  %8 = load i32, ptr %4, align 4, !tbaa !3
  %9 = icmp sge i32 %7, %8
  br i1 %9, label %10, label %11

10:                                               ; preds = %2
  br label %36

11:                                               ; preds = %2
  %12 = load ptr, ptr %3, align 8, !tbaa !7
  %13 = getelementptr inbounds nuw %struct.Vec_Wrd_t_, ptr %12, i32 0, i32 2
  %14 = load ptr, ptr %13, align 8, !tbaa !16
  %15 = icmp ne ptr %14, null
  br i1 %15, label %16, label %24

16:                                               ; preds = %11
  %17 = load ptr, ptr %3, align 8, !tbaa !7
  %18 = getelementptr inbounds nuw %struct.Vec_Wrd_t_, ptr %17, i32 0, i32 2
  %19 = load ptr, ptr %18, align 8, !tbaa !16
  %20 = load i32, ptr %4, align 4, !tbaa !3
  %21 = sext i32 %20 to i64
  %22 = mul i64 8, %21
  %23 = call ptr @realloc(ptr noundef %19, i64 noundef %22) #17
  br label %29

24:                                               ; preds = %11
  %25 = load i32, ptr %4, align 4, !tbaa !3
  %26 = sext i32 %25 to i64
  %27 = mul i64 8, %26
  %28 = call noalias ptr @malloc(i64 noundef %27) #14
  br label %29

29:                                               ; preds = %24, %16
  %30 = phi ptr [ %23, %16 ], [ %28, %24 ]
  %31 = load ptr, ptr %3, align 8, !tbaa !7
  %32 = getelementptr inbounds nuw %struct.Vec_Wrd_t_, ptr %31, i32 0, i32 2
  store ptr %30, ptr %32, align 8, !tbaa !16
  %33 = load i32, ptr %4, align 4, !tbaa !3
  %34 = load ptr, ptr %3, align 8, !tbaa !7
  %35 = getelementptr inbounds nuw %struct.Vec_Wrd_t_, ptr %34, i32 0, i32 0
  store i32 %33, ptr %35, align 8, !tbaa !15
  br label %36

36:                                               ; preds = %29, %10
  ret void
}

; Function Attrs: inlinehint nounwind uwtable
define internal void @Vec_WrdPush(ptr noundef %0, i64 noundef %1) #2 {
  %3 = alloca ptr, align 8
  %4 = alloca i64, align 8
  store ptr %0, ptr %3, align 8, !tbaa !7
  store i64 %1, ptr %4, align 8, !tbaa !17
  %5 = load ptr, ptr %3, align 8, !tbaa !7
  %6 = getelementptr inbounds nuw %struct.Vec_Wrd_t_, ptr %5, i32 0, i32 1
  %7 = load i32, ptr %6, align 4, !tbaa !12
  %8 = load ptr, ptr %3, align 8, !tbaa !7
  %9 = getelementptr inbounds nuw %struct.Vec_Wrd_t_, ptr %8, i32 0, i32 0
  %10 = load i32, ptr %9, align 8, !tbaa !15
  %11 = icmp eq i32 %7, %10
  br i1 %11, label %12, label %26

12:                                               ; preds = %2
  %13 = load ptr, ptr %3, align 8, !tbaa !7
  %14 = getelementptr inbounds nuw %struct.Vec_Wrd_t_, ptr %13, i32 0, i32 0
  %15 = load i32, ptr %14, align 8, !tbaa !15
  %16 = icmp slt i32 %15, 16
  br i1 %16, label %17, label %19

17:                                               ; preds = %12
  %18 = load ptr, ptr %3, align 8, !tbaa !7
  call void @Vec_WrdGrow(ptr noundef %18, i32 noundef 16)
  br label %25

19:                                               ; preds = %12
  %20 = load ptr, ptr %3, align 8, !tbaa !7
  %21 = load ptr, ptr %3, align 8, !tbaa !7
  %22 = getelementptr inbounds nuw %struct.Vec_Wrd_t_, ptr %21, i32 0, i32 0
  %23 = load i32, ptr %22, align 8, !tbaa !15
  %24 = mul nsw i32 2, %23
  call void @Vec_WrdGrow(ptr noundef %20, i32 noundef %24)
  br label %25

25:                                               ; preds = %19, %17
  br label %26

26:                                               ; preds = %25, %2
  %27 = load i64, ptr %4, align 8, !tbaa !17
  %28 = load ptr, ptr %3, align 8, !tbaa !7
  %29 = getelementptr inbounds nuw %struct.Vec_Wrd_t_, ptr %28, i32 0, i32 2
  %30 = load ptr, ptr %29, align 8, !tbaa !16
  %31 = load ptr, ptr %3, align 8, !tbaa !7
  %32 = getelementptr inbounds nuw %struct.Vec_Wrd_t_, ptr %31, i32 0, i32 1
  %33 = load i32, ptr %32, align 4, !tbaa !12
  %34 = add nsw i32 %33, 1
  store i32 %34, ptr %32, align 4, !tbaa !12
  %35 = sext i32 %33 to i64
  %36 = getelementptr inbounds i64, ptr %30, i64 %35
  store i64 %27, ptr %36, align 8, !tbaa !17
  ret void
}

; Function Attrs: inlinehint nounwind uwtable
define internal void @Abc_InfoXorBit(ptr noundef %0, i32 noundef %1) #2 {
  %3 = alloca ptr, align 8
  %4 = alloca i32, align 4
  store ptr %0, ptr %3, align 8, !tbaa !25
  store i32 %1, ptr %4, align 4, !tbaa !3
  %5 = load i32, ptr %4, align 4, !tbaa !3
  %6 = and i32 %5, 31
  %7 = shl i32 1, %6
  %8 = load ptr, ptr %3, align 8, !tbaa !25
  %9 = load i32, ptr %4, align 4, !tbaa !3
  %10 = ashr i32 %9, 5
  %11 = sext i32 %10 to i64
  %12 = getelementptr inbounds i32, ptr %8, i64 %11
  %13 = load i32, ptr %12, align 4, !tbaa !3
  %14 = xor i32 %13, %7
  store i32 %14, ptr %12, align 4, !tbaa !3
  ret void
}

; Function Attrs: inlinehint nounwind uwtable
define internal i32 @Abc_InfoHasBit(ptr noundef %0, i32 noundef %1) #2 {
  %3 = alloca ptr, align 8
  %4 = alloca i32, align 4
  store ptr %0, ptr %3, align 8, !tbaa !25
  store i32 %1, ptr %4, align 4, !tbaa !3
  %5 = load ptr, ptr %3, align 8, !tbaa !25
  %6 = load i32, ptr %4, align 4, !tbaa !3
  %7 = ashr i32 %6, 5
  %8 = sext i32 %7 to i64
  %9 = getelementptr inbounds i32, ptr %5, i64 %8
  %10 = load i32, ptr %9, align 4, !tbaa !3
  %11 = load i32, ptr %4, align 4, !tbaa !3
  %12 = and i32 %11, 31
  %13 = shl i32 1, %12
  %14 = and i32 %10, %13
  %15 = icmp ugt i32 %14, 0
  %16 = zext i1 %15 to i32
  ret i32 %16
}

; Function Attrs: inlinehint nounwind uwtable
define internal ptr @Vec_WrdArray(ptr noundef %0) #2 {
  %2 = alloca ptr, align 8
  store ptr %0, ptr %2, align 8, !tbaa !7
  %3 = load ptr, ptr %2, align 8, !tbaa !7
  %4 = getelementptr inbounds nuw %struct.Vec_Wrd_t_, ptr %3, i32 0, i32 2
  %5 = load ptr, ptr %4, align 8, !tbaa !16
  ret ptr %5
}

; Function Attrs: inlinehint nounwind uwtable
define internal ptr @Vec_WrdLimit(ptr noundef %0) #2 {
  %2 = alloca ptr, align 8
  store ptr %0, ptr %2, align 8, !tbaa !7
  %3 = load ptr, ptr %2, align 8, !tbaa !7
  %4 = getelementptr inbounds nuw %struct.Vec_Wrd_t_, ptr %3, i32 0, i32 2
  %5 = load ptr, ptr %4, align 8, !tbaa !16
  %6 = load ptr, ptr %2, align 8, !tbaa !7
  %7 = getelementptr inbounds nuw %struct.Vec_Wrd_t_, ptr %6, i32 0, i32 1
  %8 = load i32, ptr %7, align 4, !tbaa !12
  %9 = sext i32 %8 to i64
  %10 = getelementptr inbounds i64, ptr %5, i64 %9
  ret ptr %10
}

; Function Attrs: inlinehint nounwind uwtable
define internal i32 @Abc_MaxInt(i32 noundef %0, i32 noundef %1) #2 {
  %3 = alloca i32, align 4
  %4 = alloca i32, align 4
  store i32 %0, ptr %3, align 4, !tbaa !3
  store i32 %1, ptr %4, align 4, !tbaa !3
  %5 = load i32, ptr %3, align 4, !tbaa !3
  %6 = load i32, ptr %4, align 4, !tbaa !3
  %7 = icmp sgt i32 %5, %6
  br i1 %7, label %8, label %10

8:                                                ; preds = %2
  %9 = load i32, ptr %3, align 4, !tbaa !3
  br label %12

10:                                               ; preds = %2
  %11 = load i32, ptr %4, align 4, !tbaa !3
  br label %12

12:                                               ; preds = %10, %8
  %13 = phi i32 [ %9, %8 ], [ %11, %10 ]
  ret i32 %13
}

; Function Attrs: inlinehint nounwind uwtable
define internal ptr @Vec_WrdAlloc(i32 noundef %0) #2 {
  %2 = alloca i32, align 4
  %3 = alloca ptr, align 8
  store i32 %0, ptr %2, align 4, !tbaa !3
  call void @llvm.lifetime.start.p0(i64 8, ptr %3) #13
  %4 = call noalias ptr @malloc(i64 noundef 16) #14
  store ptr %4, ptr %3, align 8, !tbaa !7
  %5 = load i32, ptr %2, align 4, !tbaa !3
  %6 = icmp sgt i32 %5, 0
  br i1 %6, label %7, label %11

7:                                                ; preds = %1
  %8 = load i32, ptr %2, align 4, !tbaa !3
  %9 = icmp slt i32 %8, 16
  br i1 %9, label %10, label %11

10:                                               ; preds = %7
  store i32 16, ptr %2, align 4, !tbaa !3
  br label %11

11:                                               ; preds = %10, %7, %1
  %12 = load ptr, ptr %3, align 8, !tbaa !7
  %13 = getelementptr inbounds nuw %struct.Vec_Wrd_t_, ptr %12, i32 0, i32 1
  store i32 0, ptr %13, align 4, !tbaa !12
  %14 = load i32, ptr %2, align 4, !tbaa !3
  %15 = load ptr, ptr %3, align 8, !tbaa !7
  %16 = getelementptr inbounds nuw %struct.Vec_Wrd_t_, ptr %15, i32 0, i32 0
  store i32 %14, ptr %16, align 8, !tbaa !15
  %17 = load ptr, ptr %3, align 8, !tbaa !7
  %18 = getelementptr inbounds nuw %struct.Vec_Wrd_t_, ptr %17, i32 0, i32 0
  %19 = load i32, ptr %18, align 8, !tbaa !15
  %20 = icmp ne i32 %19, 0
  br i1 %20, label %21, label %28

21:                                               ; preds = %11
  %22 = load ptr, ptr %3, align 8, !tbaa !7
  %23 = getelementptr inbounds nuw %struct.Vec_Wrd_t_, ptr %22, i32 0, i32 0
  %24 = load i32, ptr %23, align 8, !tbaa !15
  %25 = sext i32 %24 to i64
  %26 = mul i64 8, %25
  %27 = call noalias ptr @malloc(i64 noundef %26) #14
  br label %29

28:                                               ; preds = %11
  br label %29

29:                                               ; preds = %28, %21
  %30 = phi ptr [ %27, %21 ], [ null, %28 ]
  %31 = load ptr, ptr %3, align 8, !tbaa !7
  %32 = getelementptr inbounds nuw %struct.Vec_Wrd_t_, ptr %31, i32 0, i32 2
  store ptr %30, ptr %32, align 8, !tbaa !16
  %33 = load ptr, ptr %3, align 8, !tbaa !7
  call void @llvm.lifetime.end.p0(i64 8, ptr %3) #13
  ret ptr %33
}

; Function Attrs: nounwind uwtable
define ptr @Abc_SuppGenPairs(ptr noundef %0, i32 noundef %1) #0 {
  %3 = alloca ptr, align 8
  %4 = alloca i32, align 4
  %5 = alloca ptr, align 8
  %6 = alloca ptr, align 8
  %7 = alloca ptr, align 8
  %8 = alloca ptr, align 8
  %9 = alloca ptr, align 8
  %10 = alloca i64, align 8
  store ptr %0, ptr %3, align 8, !tbaa !7
  store i32 %1, ptr %4, align 4, !tbaa !3
  call void @llvm.lifetime.start.p0(i64 8, ptr %5) #13
  %11 = call ptr @Vec_WrdAlloc(i32 noundef 1000)
  store ptr %11, ptr %5, align 8, !tbaa !7
  call void @llvm.lifetime.start.p0(i64 8, ptr %6) #13
  %12 = load i32, ptr %4, align 4, !tbaa !3
  %13 = sub nsw i32 %12, 5
  %14 = call i32 @Abc_MaxInt(i32 noundef 0, i32 noundef %13)
  %15 = shl i32 1, %14
  %16 = sext i32 %15 to i64
  %17 = call noalias ptr @calloc(i64 noundef %16, i64 noundef 4) #15
  store ptr %17, ptr %6, align 8, !tbaa !25
  call void @llvm.lifetime.start.p0(i64 8, ptr %7) #13
  %18 = load ptr, ptr %3, align 8, !tbaa !7
  %19 = call ptr @Vec_WrdLimit(ptr noundef %18)
  store ptr %19, ptr %7, align 8, !tbaa !19
  call void @llvm.lifetime.start.p0(i64 8, ptr %8) #13
  %20 = load ptr, ptr %3, align 8, !tbaa !7
  %21 = call ptr @Vec_WrdArray(ptr noundef %20)
  store ptr %21, ptr %8, align 8, !tbaa !19
  call void @llvm.lifetime.start.p0(i64 8, ptr %9) #13
  call void @llvm.lifetime.start.p0(i64 8, ptr %10) #13
  br label %22

22:                                               ; preds = %55, %2
  %23 = load ptr, ptr %8, align 8, !tbaa !19
  %24 = load ptr, ptr %7, align 8, !tbaa !19
  %25 = icmp ult ptr %23, %24
  br i1 %25, label %26, label %58

26:                                               ; preds = %22
  %27 = load ptr, ptr %8, align 8, !tbaa !19
  %28 = getelementptr inbounds i64, ptr %27, i64 1
  store ptr %28, ptr %9, align 8, !tbaa !19
  br label %29

29:                                               ; preds = %51, %26
  %30 = load ptr, ptr %9, align 8, !tbaa !19
  %31 = load ptr, ptr %7, align 8, !tbaa !19
  %32 = icmp ult ptr %30, %31
  br i1 %32, label %33, label %54

33:                                               ; preds = %29
  %34 = load ptr, ptr %8, align 8, !tbaa !19
  %35 = load i64, ptr %34, align 8, !tbaa !17
  %36 = load ptr, ptr %9, align 8, !tbaa !19
  %37 = load i64, ptr %36, align 8, !tbaa !17
  %38 = xor i64 %35, %37
  store i64 %38, ptr %10, align 8, !tbaa !17
  %39 = load ptr, ptr %6, align 8, !tbaa !25
  %40 = load i64, ptr %10, align 8, !tbaa !17
  %41 = trunc i64 %40 to i32
  %42 = call i32 @Abc_InfoHasBit(ptr noundef %39, i32 noundef %41)
  %43 = icmp ne i32 %42, 0
  br i1 %43, label %44, label %45

44:                                               ; preds = %33
  br label %51

45:                                               ; preds = %33
  %46 = load ptr, ptr %6, align 8, !tbaa !25
  %47 = load i64, ptr %10, align 8, !tbaa !17
  %48 = trunc i64 %47 to i32
  call void @Abc_InfoXorBit(ptr noundef %46, i32 noundef %48)
  %49 = load ptr, ptr %5, align 8, !tbaa !7
  %50 = load i64, ptr %10, align 8, !tbaa !17
  call void @Vec_WrdPush(ptr noundef %49, i64 noundef %50)
  br label %51

51:                                               ; preds = %45, %44
  %52 = load ptr, ptr %9, align 8, !tbaa !19
  %53 = getelementptr inbounds nuw i64, ptr %52, i32 1
  store ptr %53, ptr %9, align 8, !tbaa !19
  br label %29, !llvm.loop !27

54:                                               ; preds = %29
  br label %55

55:                                               ; preds = %54
  %56 = load ptr, ptr %8, align 8, !tbaa !19
  %57 = getelementptr inbounds nuw i64, ptr %56, i32 1
  store ptr %57, ptr %8, align 8, !tbaa !19
  br label %22, !llvm.loop !28

58:                                               ; preds = %22
  %59 = load ptr, ptr %6, align 8, !tbaa !25
  %60 = icmp ne ptr %59, null
  br i1 %60, label %61, label %63

61:                                               ; preds = %58
  %62 = load ptr, ptr %6, align 8, !tbaa !25
  call void @free(ptr noundef %62) #13
  store ptr null, ptr %6, align 8, !tbaa !25
  br label %64

63:                                               ; preds = %58
  br label %64

64:                                               ; preds = %63, %61
  %65 = load ptr, ptr %5, align 8, !tbaa !7
  call void @llvm.lifetime.end.p0(i64 8, ptr %10) #13
  call void @llvm.lifetime.end.p0(i64 8, ptr %9) #13
  call void @llvm.lifetime.end.p0(i64 8, ptr %8) #13
  call void @llvm.lifetime.end.p0(i64 8, ptr %7) #13
  call void @llvm.lifetime.end.p0(i64 8, ptr %6) #13
  call void @llvm.lifetime.end.p0(i64 8, ptr %5) #13
  ret ptr %65
}