; Function Attrs: nounwind uwtable
define noalias noundef ptr @Abc_SuppGenPairs(ptr noundef readonly captures(none) %0, i32 noundef %1) local_unnamed_addr #0 {
  %3 = tail call noalias dereferenceable_or_null(16) ptr @malloc(i64 noundef 16) #22
  %4 = getelementptr inbounds nuw i8, ptr %3, i64 4
  store i32 0, ptr %4, align 4, !tbaa !3
  store i32 1000, ptr %3, align 8, !tbaa !10
  %5 = tail call noalias dereferenceable_or_null(8000) ptr @malloc(i64 noundef 8000) #22
  %6 = getelementptr inbounds nuw i8, ptr %3, i64 8
  store ptr %5, ptr %6, align 8, !tbaa !11
  %7 = tail call i32 @llvm.smax.i32(i32 %1, i32 5)
  %8 = add nsw i32 %7, -5
  %9 = shl nuw i32 1, %8
  %10 = sext i32 %9 to i64
  %11 = tail call noalias ptr @calloc(i64 noundef %10, i64 noundef 4) #25
  %12 = getelementptr i8, ptr %0, i64 4
  %.val = load i32, ptr %12, align 4, !tbaa !3
  %13 = getelementptr i8, ptr %0, i64 8
  %.val24 = load ptr, ptr %13, align 8, !tbaa !11
  %14 = sext i32 %.val to i64
  %.idx = shl nsw i64 %14, 3
  %15 = getelementptr inbounds i8, ptr %.val24, i64 %.idx
  %or.cond = icmp slt i32 %.val, 2
  br i1 %or.cond, label %._crit_edge, label %.lr.ph.preheader.lr.ph

.lr.ph.preheader.lr.ph:                           ; preds = %2
  %16 = getelementptr inbounds nuw i8, ptr %.val24, i64 8
  br label %.lr.ph.preheader

.loopexit:                                        ; preds = %58
  %17 = getelementptr inbounds nuw i8, ptr %19, i64 8
  %18 = icmp ult ptr %17, %15
  br i1 %18, label %.lr.ph.preheader, label %._crit_edge, !llvm.loop !21

.lr.ph.preheader:                                 ; preds = %.lr.ph.preheader.lr.ph, %.loopexit
  %19 = phi ptr [ %16, %.lr.ph.preheader.lr.ph ], [ %17, %.loopexit ]
  %.0202740 = phi ptr [ %.val24, %.lr.ph.preheader.lr.ph ], [ %19, %.loopexit ]
  %20 = phi i32 [ 0, %.lr.ph.preheader.lr.ph ], [ %60, %.loopexit ]
  %21 = phi i32 [ 1000, %.lr.ph.preheader.lr.ph ], [ %59, %.loopexit ]
  %.pre.i3339 = phi ptr [ %5, %.lr.ph.preheader.lr.ph ], [ %.pre.i30, %.loopexit ]
  br label %.lr.ph

.lr.ph:                                           ; preds = %.lr.ph.preheader, %58
  %22 = phi ptr [ %.pre.i30, %58 ], [ %.pre.i3339, %.lr.ph.preheader ]
  %23 = phi i32 [ %59, %58 ], [ %21, %.lr.ph.preheader ]
  %24 = phi i32 [ %60, %58 ], [ %20, %.lr.ph.preheader ]
  %.026 = phi ptr [ %61, %58 ], [ %19, %.lr.ph.preheader ]
  %25 = load i64, ptr %.0202740, align 8, !tbaa !12
  %26 = load i64, ptr %.026, align 8, !tbaa !12
  %27 = xor i64 %26, %25
  %28 = trunc i64 %27 to i32
  %29 = ashr i32 %28, 5
  %30 = sext i32 %29 to i64
  %31 = getelementptr inbounds i32, ptr %11, i64 %30
  %32 = load i32, ptr %31, align 4, !tbaa !22
  %33 = and i32 %28, 31
  %34 = shl nuw i32 1, %33
  %35 = and i32 %34, %32
  %.not23 = icmp eq i32 %35, 0
  br i1 %.not23, label %36, label %58

36:                                               ; preds = %.lr.ph
  %37 = xor i32 %34, %32
  store i32 %37, ptr %31, align 4, !tbaa !22
  %38 = icmp eq i32 %24, %23
  br i1 %38, label %39, label %Vec_WrdPush.exit

39:                                               ; preds = %36
  %40 = icmp slt i32 %23, 16
  br i1 %40, label %41, label %46

41:                                               ; preds = %39
  %.not9.i.i = icmp eq ptr %22, null
  br i1 %.not9.i.i, label %44, label %42

42:                                               ; preds = %41
  %43 = tail call dereferenceable_or_null(128) ptr @realloc(ptr noundef nonnull %22, i64 noundef 128) #23
  br label %Vec_WrdPush.exit.sink.split

44:                                               ; preds = %41
  %45 = tail call noalias dereferenceable_or_null(128) ptr @malloc(i64 noundef 128) #22
  br label %Vec_WrdPush.exit.sink.split

46:                                               ; preds = %39
  %47 = shl nuw nsw i32 %23, 1
  %.not9.i9.i = icmp eq ptr %22, null
  %48 = zext nneg i32 %47 to i64
  %49 = shl nuw nsw i64 %48, 3
  br i1 %.not9.i9.i, label %52, label %50

50:                                               ; preds = %46
  %51 = tail call ptr @realloc(ptr noundef nonnull %22, i64 noundef %49) #23
  br label %Vec_WrdPush.exit.sink.split

52:                                               ; preds = %46
  %53 = tail call noalias ptr @malloc(i64 noundef %49) #22
  br label %Vec_WrdPush.exit.sink.split

Vec_WrdPush.exit.sink.split:                      ; preds = %50, %52, %42, %44
  %.sink37 = phi ptr [ %43, %42 ], [ %45, %44 ], [ %51, %50 ], [ %53, %52 ]
  %.sink = phi i32 [ 16, %42 ], [ 16, %44 ], [ %47, %50 ], [ %47, %52 ]
  store ptr %.sink37, ptr %6, align 8, !tbaa !11
  store i32 %.sink, ptr %3, align 8, !tbaa !10
  br label %Vec_WrdPush.exit

Vec_WrdPush.exit:                                 ; preds = %Vec_WrdPush.exit.sink.split, %36
  %.pre.i31 = phi ptr [ %22, %36 ], [ %.sink37, %Vec_WrdPush.exit.sink.split ]
  %54 = phi i32 [ %23, %36 ], [ %.sink, %Vec_WrdPush.exit.sink.split ]
  %55 = add nsw i32 %24, 1
  store i32 %55, ptr %4, align 4, !tbaa !3
  %56 = sext i32 %24 to i64
  %57 = getelementptr inbounds i64, ptr %.pre.i31, i64 %56
  store i64 %27, ptr %57, align 8, !tbaa !12
  br label %58

58:                                               ; preds = %.lr.ph, %Vec_WrdPush.exit
  %.pre.i30 = phi ptr [ %22, %.lr.ph ], [ %.pre.i31, %Vec_WrdPush.exit ]
  %59 = phi i32 [ %23, %.lr.ph ], [ %54, %Vec_WrdPush.exit ]
  %60 = phi i32 [ %24, %.lr.ph ], [ %55, %Vec_WrdPush.exit ]
  %61 = getelementptr inbounds nuw i8, ptr %.026, i64 8
  %62 = icmp ult ptr %61, %15
  br i1 %62, label %.lr.ph, label %.loopexit, !llvm.loop !23

._crit_edge:                                      ; preds = %.loopexit, %2
  %.not = icmp eq ptr %11, null
  br i1 %.not, label %63, label %._crit_edge.thread

._crit_edge.thread:                               ; preds = %._crit_edge
  tail call void @free(ptr noundef nonnull %11) #24
  br label %63

63:                                               ; preds = %._crit_edge, %._crit_edge.thread
  ret ptr %3
}